(ilibs.state
state
p0
(dp1
S'next_ips'
p2
I3
sS'ips'
p3
(lp4
S'8.8.8.8'
p5
aS'1.1.1.0/24'
p6
aS'1.2.3.0/24'
p7
aS'8.8.4.0/24'
p8
aS'8.8.8.0/24'
p9
aS'8.34.208.0/21'
p10
aS'8.34.216.0/21'
p11
aS'8.35.192.0/21'
p12
aS'8.35.200.0/21'
p13
aS'23.236.48.0/20'
p14
aS'23.251.128.0/19'
p15
aS'64.233.160.0/19'
p16
aS'64.233.161.0/24'
p17
aS'64.233.162.0/24'
p18
aS'64.233.163.0/24'
p19
aS'64.233.164.0/24'
p20
aS'64.233.165.0/24'
p21
aS'64.233.166.0/24'
p22
aS'64.233.167.0/24'
p23
aS'64.233.168.0/24'
p24
aS'64.233.169.0/24'
p25
aS'64.233.176.0/24'
p26
aS'64.233.177.0/24'
p27
aS'64.233.178.0/24'
p28
aS'64.233.179.0/24'
p29
aS'64.233.180.0/24'
p30
aS'64.233.181.0/24'
p31
aS'64.233.182.0/24'
p32
aS'64.233.183.0/24'
p33
aS'64.233.184.0/24'
p34
aS'64.233.185.0/24'
p35
aS'64.233.186.0/24'
p36
aS'64.233.187.0/24'
p37
aS'64.233.188.0/24'
p38
aS'64.233.189.0/24'
p39
aS'64.233.190.0/24'
p40
aS'64.233.191.0/24'
p41
aS'66.102.0.0/20'
p42
aS'66.102.1.0/24'
p43
aS'66.102.2.0/24'
p44
aS'66.102.3.0/24'
p45
aS'66.102.4.0/24'
p46
aS'66.102.12.0/24'
p47
aS'66.249.64.0/19'
p48
aS'66.249.68.0/24'
p49
aS'66.249.70.0/24'
p50
aS'66.249.72.0/24'
p51
aS'66.249.78.0/24'
p52
aS'70.32.128.0/19'
p53
aS'70.32.132.0/23'
p54
aS'70.32.144.0/24'
p55
aS'70.32.148.0/23'
p56
aS'72.14.192.0/18'
p57
aS'74.114.24.0/21'
p58
aS'74.125.0.0/16'
p59
aS'74.125.6.0/24'
p60
aS'74.125.20.0/24'
p61
aS'74.125.21.0/24'
p62
aS'74.125.22.0/24'
p63
aS'74.125.23.0/24'
p64
aS'74.125.24.0/24'
p65
aS'74.125.25.0/24'
p66
aS'74.125.26.0/24'
p67
aS'74.125.27.0/24'
p68
aS'74.125.28.0/24'
p69
aS'74.125.29.0/24'
p70
aS'74.125.30.0/24'
p71
aS'74.125.36.0/24'
p72
aS'74.125.53.0/24'
p73
aS'74.125.58.0/24'
p74
aS'74.125.68.0/24'
p75
aS'74.125.69.0/24'
p76
aS'74.125.70.0/24'
p77
aS'74.125.71.0/24'
p78
aS'74.125.88.0/23'
p79
aS'74.125.90.0/23'
p80
aS'74.125.117.0/24'
p81
aS'74.125.118.0/24'
p82
aS'74.125.119.0/24'
p83
aS'74.125.126.0/24'
p84
aS'74.125.127.0/24'
p85
aS'74.125.130.0/24'
p86
aS'74.125.132.0/24'
p87
aS'74.125.133.0/24'
p88
aS'74.125.134.0/24'
p89
aS'74.125.135.0/24'
p90
aS'74.125.136.0/24'
p91
aS'74.125.138.0/24'
p92
aS'74.125.139.0/24'
p93
aS'74.125.140.0/24'
p94
aS'74.125.141.0/24'
p95
aS'74.125.142.0/24'
p96
aS'74.125.144.0/24'
p97
aS'74.125.193.0/24'
p98
aS'74.125.194.0/24'
p99
aS'74.125.195.0/24'
p100
aS'74.125.196.0/24'
p101
aS'74.125.198.0/24'
p102
aS'74.125.200.0/24'
p103
aS'74.125.201.0/24'
p104
aS'74.125.202.0/24'
p105
aS'74.125.203.0/24'
p106
aS'74.125.204.0/24'
p107
aS'74.125.205.0/24'
p108
aS'74.125.206.0/24'
p109
aS'74.125.207.0/24'
p110
aS'74.125.224.0/24'
p111
aS'74.125.225.0/24'
p112
aS'74.125.226.0/24'
p113
aS'74.125.227.0/24'
p114
aS'74.125.228.0/24'
p115
aS'74.125.229.0/24'
p116
aS'74.125.230.0/24'
p117
aS'74.125.231.0/24'
p118
aS'74.125.232.0/24'
p119
aS'74.125.233.0/24'
p120
aS'74.125.234.0/24'
p121
aS'74.125.235.0/24'
p122
aS'74.125.236.0/24'
p123
aS'74.125.237.0/24'
p124
aS'74.125.238.0/24'
p125
aS'74.125.239.0/24'
p126
aS'104.132.7.0/24'
p127
aS'104.132.8.0/24'
p128
aS'104.132.20.0/24'
p129
aS'104.132.24.0/24'
p130
aS'104.132.34.0/24'
p131
aS'104.132.51.0/24'
p132
aS'104.133.0.0/24'
p133
aS'104.135.128.0/18'
p134
aS'104.154.0.0/15'
p135
aS'104.196.0.0/14'
p136
aS'107.167.160.0/19'
p137
aS'107.178.192.0/18'
p138
aS'108.59.80.0/20'
p139
aS'108.170.192.0/18'
p140
aS'108.177.0.0/17'
p141
aS'108.177.2.0/24'
p142
aS'108.177.4.0/23'
p143
aS'108.177.8.0/24'
p144
aS'108.177.9.0/24'
p145
aS'108.177.10.0/24'
p146
aS'108.177.11.0/24'
p147
aS'108.177.12.0/24'
p148
aS'108.177.15.0/24'
p149
aS'108.177.18.0/23'
p150
aS'130.211.0.0/16'
p151
aS'142.250.0.0/15'
p152
aS'146.148.0.0/17'
p153
aS'162.216.148.0/22'
p154
aS'162.222.176.0/21'
p155
aS'172.102.8.0/21'
p156
aS'172.102.9.0/24'
p157
aS'172.102.10.0/24'
p158
aS'172.102.12.0/24'
p159
aS'172.102.13.0/24'
p160
aS'172.102.14.0/24'
p161
aS'172.102.15.0/24'
p162
aS'172.110.32.0/21'
p163
aS'172.217.0.0/16'
p164
aS'172.253.0.0/16'
p165
aS'173.194.0.0/16'
p166
aS'173.194.7.0/24'
p167
aS'173.194.32.0/24'
p168
aS'173.194.33.0/24'
p169
aS'173.194.34.0/24'
p170
aS'173.194.35.0/24'
p171
aS'173.194.36.0/24'
p172
aS'173.194.37.0/24'
p173
aS'173.194.38.0/24'
p174
aS'173.194.39.0/24'
p175
aS'173.194.40.0/24'
p176
aS'173.194.41.0/24'
p177
aS'173.194.42.0/24'
p178
aS'173.194.43.0/24'
p179
aS'173.194.44.0/24'
p180
aS'173.194.45.0/24'
p181
aS'173.194.46.0/24'
p182
aS'173.194.47.0/24'
p183
aS'173.194.53.0/24'
p184
aS'173.194.63.0/24'
p185
aS'173.194.64.0/24'
p186
aS'173.194.65.0/24'
p187
aS'173.194.68.0/24'
p188
aS'173.194.69.0/24'
p189
aS'173.194.70.0/24'
p190
aS'173.194.71.0/24'
p191
aS'173.194.72.0/24'
p192
aS'173.194.74.0/24'
p193
aS'173.194.75.0/24'
p194
aS'173.194.77.0/24'
p195
aS'173.194.79.0/24'
p196
aS'173.194.112.0/24'
p197
aS'173.194.113.0/24'
p198
aS'173.194.117.0/24'
p199
aS'173.194.118.0/24'
p200
aS'173.194.119.0/24'
p201
aS'173.194.120.0/24'
p202
aS'173.194.121.0/24'
p203
aS'173.194.124.0/24'
p204
aS'173.194.125.0/24'
p205
aS'173.194.126.0/24'
p206
aS'173.194.127.0/24'
p207
aS'173.194.132.0/24'
p208
aS'173.194.136.0/24'
p209
aS'173.194.140.0/24'
p210
aS'173.194.141.0/24'
p211
aS'173.194.142.0/24'
p212
aS'173.194.192.0/24'
p213
aS'173.194.193.0/24'
p214
aS'173.194.194.0/24'
p215
aS'173.194.195.0/24'
p216
aS'173.194.196.0/24'
p217
aS'173.194.197.0/24'
p218
aS'173.194.199.0/24'
p219
aS'173.194.200.0/24'
p220
aS'173.194.201.0/24'
p221
aS'173.194.202.0/24'
p222
aS'173.194.203.0/24'
p223
aS'173.194.204.0/24'
p224
aS'173.194.205.0/24'
p225
aS'173.194.206.0/24'
p226
aS'173.194.207.0/24'
p227
aS'173.194.208.0/24'
p228
aS'173.194.209.0/24'
p229
aS'173.194.210.0/24'
p230
aS'173.194.211.0/24'
p231
aS'173.194.212.0/24'
p232
aS'173.194.213.0/24'
p233
aS'173.194.214.0/24'
p234
aS'173.194.215.0/24'
p235
aS'173.194.216.0/24'
p236
aS'173.194.217.0/24'
p237
aS'173.194.218.0/24'
p238
aS'173.194.219.0/24'
p239
aS'173.194.220.0/24'
p240
aS'173.194.222.0/24'
p241
aS'173.194.223.0/24'
p242
aS'173.255.112.0/20'
p243
aS'185.25.28.0/23'
p244
aS'192.104.160.0/23'
p245
aS'192.158.28.0/22'
p246
aS'192.178.0.0/15'
p247
aS'193.200.222.0/24'
p248
aS'199.192.112.0/22'
p249
aS'199.223.232.0/21'
p250
aS'209.85.128.0/17'
p251
aS'209.85.145.0/24'
p252
aS'209.85.146.0/24'
p253
aS'209.85.147.0/24'
p254
aS'216.58.192.0/19'
p255
aS'216.58.200.0/24'
p256
aS'216.58.208.0/24'
p257
aS'216.58.209.0/24'
p258
aS'216.58.210.0/24'
p259
aS'216.58.211.0/24'
p260
aS'216.58.212.0/24'
p261
aS'216.58.213.0/24'
p262
aS'216.58.214.0/24'
p263
aS'216.58.215.0/24'
p264
aS'216.58.216.0/24'
p265
aS'216.58.217.0/24'
p266
aS'216.58.218.0/24'
p267
aS'216.58.219.0/24'
p268
aS'216.58.220.0/24'
p269
aS'216.58.221.0/24'
p270
aS'216.58.222.0/24'
p271
aS'216.58.223.0/24'
p272
aS'216.239.32.0/19'
p273
aS'216.239.33.0/24'
p274
aS'216.239.34.0/24'
p275
aS'216.239.35.0/24'
p276
aS'216.239.36.0/24'
p277
aS'216.239.38.0/24'
p278
aS'216.239.39.0/24'
p279
aS'216.252.220.0/22'
p280
aS'216.252.221.0/24'
p281
aS'216.252.222.0/24'
p282
aS'63.88.73.0/24'
p283
aS'63.96.4.0/24'
p284
aS'63.110.67.0/24'
p285
aS'63.117.14.0/24'
p286
aS'63.117.68.0/24'
p287
aS'63.117.215.0/24'
p288
aS'64.15.113.0/24'
p289
aS'64.15.114.0/24'
p290
aS'64.15.116.0/24'
p291
aS'64.15.117.0/24'
p292
aS'64.15.118.0/24'
p293
aS'64.15.119.0/24'
p294
aS'64.15.124.0/24'
p295
aS'64.15.126.0/24'
p296
aS'65.196.188.0/24'
p297
aS'65.199.32.0/24'
p298
aS'104.237.172.0/24'
p299
aS'104.237.174.0/24'
p300
aS'104.237.188.0/24'
p301
aS'104.237.189.0/24'
p302
aS'104.237.191.0/24'
p303
aS'149.3.177.0/24'
p304
aS'194.122.80.0/24'
p305
aS'194.122.81.0/24'
p306
aS'194.122.82.0/24'
p307
aS'208.65.155.0/24'
p308
aS'208.117.225.0/24'
p309
aS'208.117.229.0/24'
p310
aS'208.117.230.0/24'
p311
aS'208.117.231.0/24'
p312
aS'208.117.243.0/24'
p313
aS'208.117.244.0/24'
p314
aS'208.117.253.0/24'
p315
aS'64.9.224.0/24'
p316
aS'64.9.225.0/24'
p317
aS'64.9.236.0/22'
p318
aS'64.9.240.0/24'
p319
aS'64.9.241.0/24'
p320
aS'64.9.242.0/24'
p321
aS'64.9.243.0/24'
p322
aS'64.9.244.0/22'
p323
aS'64.9.248.0/22'
p324
aS'64.9.252.0/22'
p325
aS'104.132.17.0/24'
p326
aS'104.132.21.0/24'
p327
aS'104.132.26.0/24'
p328
aS'104.132.29.0/24'
p329
aS'104.132.30.0/24'
p330
aS'104.132.40.0/24'
p331
aS'104.132.42.0/24'
p332
aS'104.132.48.0/24'
p333
aS'104.132.52.0/24'
p334
aS'104.132.127.0/24'
p335
aS'104.132.132.0/24'
p336
aS'104.132.138.0/24'
p337
aS'104.132.139.0/24'
p338
aS'104.132.142.0/24'
p339
aS'104.132.144.0/24'
p340
aS'104.132.151.0/24'
p341
aS'104.132.152.0/24'
p342
aS'104.132.156.0/24'
p343
aS'104.132.160.0/24'
p344
aS'104.132.161.0/24'
p345
aS'104.132.162.0/24'
p346
aS'104.132.163.0/24'
p347
aS'104.132.165.0/24'
p348
aS'104.132.167.0/24'
p349
aS'104.132.168.0/24'
p350
aS'104.132.171.0/24'
p351
aS'104.132.174.0/24'
p352
aS'104.132.176.0/24'
p353
aS'104.132.178.0/24'
p354
aS'104.132.187.0/24'
p355
aS'104.132.189.0/24'
p356
aS'104.132.198.0/24'
p357
aS'104.132.201.0/24'
p358
aS'104.132.202.0/24'
p359
aS'104.132.203.0/24'
p360
aS'104.132.209.0/24'
p361
aS'64.15.112.0/20'
p362
aS'104.237.160.0/19'
p363
aS'208.65.152.0/22'
p364
aS'208.117.224.0/19'
p365
aS'208.117.234.0/24'
p366
aS'208.117.236.0/24'
p367
aS'208.117.238.0/24'
p368
aS'208.117.239.0/24'
p369
aS'208.117.242.0/24'
p370
aS'208.117.252.0/24'
p371
aS'208.117.254.0/24'
p372
aS'216.239.60.0/24'
p373
asS'init_file'
p374
S'init.ip'
p375
sS'running_ips'
p376
(dp377
S'Process-1'
p378
g7
sS'Process-2'
p379
g6
ssb.